target datalayout = "e-m:e-p270:32:32-p271:32:32-p272:64:64-i64:64-i128:128-f80:128-n8:16:32:64-S128"
target triple = "x86_64-pc-linux-gnu"

%struct.strbuf = type { i64, i64, ptr }

@get_git_namespace.namespace = internal global ptr null, align 8
@strbuf_slopbuf = external global [0 x i8], align 1
@__const.get_git_namespace.buf = private unnamed_addr constant %struct.strbuf { i64 0, i64 0, ptr @strbuf_slopbuf }, align 8
@.str.16 = private unnamed_addr constant [14 x i8] c"GIT_NAMESPACE\00", align 1
@.str.17 = private unnamed_addr constant [1 x i8] zeroinitializer, align 1
@.str.18 = private unnamed_addr constant [2 x i8] c"/\00", align 1
@.str.19 = private unnamed_addr constant [19 x i8] c"refs/namespaces/%s\00", align 1
@.str.20 = private unnamed_addr constant [28 x i8] c"bad git namespace path \22%s\22\00", align 1
@.str.26 = private unnamed_addr constant [11 x i8] c"./strbuf.h\00", align 1
@.str.27 = private unnamed_addr constant [30 x i8] c"strbuf_setlen() beyond buffer\00", align 1

; Function Attrs: inlinehint nounwind uwtable
define internal i64 @strbuf_avail(ptr noundef %0) #5 {
  %2 = alloca ptr, align 8
  store ptr %0, ptr %2, align 8, !tbaa !45
  %3 = load ptr, ptr %2, align 8, !tbaa !45
  %4 = getelementptr inbounds nuw %struct.strbuf, ptr %3, i32 0, i32 0
  %5 = load i64, ptr %4, align 8, !tbaa !52
  %6 = icmp ne i64 %5, 0
  br i1 %6, label %7, label %16

7:                                                ; preds = %1
  %8 = load ptr, ptr %2, align 8, !tbaa !45
  %9 = getelementptr inbounds nuw %struct.strbuf, ptr %8, i32 0, i32 0
  %10 = load i64, ptr %9, align 8, !tbaa !52
  %11 = load ptr, ptr %2, align 8, !tbaa !45
  %12 = getelementptr inbounds nuw %struct.strbuf, ptr %11, i32 0, i32 1
  %13 = load i64, ptr %12, align 8, !tbaa !53
  %14 = sub i64 %10, %13
  %15 = sub i64 %14, 1
  br label %17

16:                                               ; preds = %1
  br label %17

17:                                               ; preds = %16, %7
  %18 = phi i64 [ %15, %7 ], [ 0, %16 ]
  ret i64 %18
}

; Function Attrs: inlinehint nounwind uwtable
define internal ptr @strbuf_split_max(ptr noundef %0, i32 noundef %1, i32 noundef %2) #5 {
  %4 = alloca ptr, align 8
  %5 = alloca i32, align 4
  %6 = alloca i32, align 4
  store ptr %0, ptr %4, align 8, !tbaa !45
  store i32 %1, ptr %5, align 4, !tbaa !16
  store i32 %2, ptr %6, align 4, !tbaa !16
  %7 = load ptr, ptr %4, align 8, !tbaa !45
  %8 = getelementptr inbounds nuw %struct.strbuf, ptr %7, i32 0, i32 2
  %9 = load ptr, ptr %8, align 8, !tbaa !47
  %10 = load ptr, ptr %4, align 8, !tbaa !45
  %11 = getelementptr inbounds nuw %struct.strbuf, ptr %10, i32 0, i32 1
  %12 = load i64, ptr %11, align 8, !tbaa !53
  %13 = load i32, ptr %5, align 4, !tbaa !16
  %14 = load i32, ptr %6, align 4, !tbaa !16
  %15 = call ptr @strbuf_split_buf(ptr noundef %9, i64 noundef %12, i32 noundef %13, i32 noundef %14)
  ret ptr %15
}

; Function Attrs: inlinehint nounwind uwtable
define internal void @strbuf_addch(ptr noundef %0, i32 noundef %1) #5 {
  %3 = alloca ptr, align 8
  %4 = alloca i32, align 4
  store ptr %0, ptr %3, align 8, !tbaa !45
  store i32 %1, ptr %4, align 4, !tbaa !16
  %5 = load ptr, ptr %3, align 8, !tbaa !45
  %6 = call i64 @strbuf_avail(ptr noundef %5)
  %7 = icmp ne i64 %6, 0
  br i1 %7, label %10, label %8

8:                                                ; preds = %2
  %9 = load ptr, ptr %3, align 8, !tbaa !45
  call void @strbuf_grow(ptr noundef %9, i64 noundef 1)
  br label %10

10:                                               ; preds = %8, %2
  %11 = load i32, ptr %4, align 4, !tbaa !16
  %12 = trunc i32 %11 to i8
  %13 = load ptr, ptr %3, align 8, !tbaa !45
  %14 = getelementptr inbounds nuw %struct.strbuf, ptr %13, i32 0, i32 2
  %15 = load ptr, ptr %14, align 8, !tbaa !47
  %16 = load ptr, ptr %3, align 8, !tbaa !45
  %17 = getelementptr inbounds nuw %struct.strbuf, ptr %16, i32 0, i32 1
  %18 = load i64, ptr %17, align 8, !tbaa !53
  %19 = add i64 %18, 1
  store i64 %19, ptr %17, align 8, !tbaa !53
  %20 = getelementptr inbounds nuw i8, ptr %15, i64 %18
  store i8 %12, ptr %20, align 1, !tbaa !42
  %21 = load ptr, ptr %3, align 8, !tbaa !45
  %22 = getelementptr inbounds nuw %struct.strbuf, ptr %21, i32 0, i32 2
  %23 = load ptr, ptr %22, align 8, !tbaa !47
  %24 = load ptr, ptr %3, align 8, !tbaa !45
  %25 = getelementptr inbounds nuw %struct.strbuf, ptr %24, i32 0, i32 1
  %26 = load i64, ptr %25, align 8, !tbaa !53
  %27 = getelementptr inbounds nuw i8, ptr %23, i64 %26
  store i8 0, ptr %27, align 1, !tbaa !42
  ret void
}

; Function Attrs: inlinehint nounwind uwtable
define internal void @strbuf_setlen(ptr noundef %0, i64 noundef %1) #5 {
  %3 = alloca ptr, align 8
  %4 = alloca i64, align 8
  store ptr %0, ptr %3, align 8, !tbaa !45
  store i64 %1, ptr %4, align 8, !tbaa !51
  %5 = load i64, ptr %4, align 8, !tbaa !51
  %6 = load ptr, ptr %3, align 8, !tbaa !45
  %7 = getelementptr inbounds nuw %struct.strbuf, ptr %6, i32 0, i32 0
  %8 = load i64, ptr %7, align 8, !tbaa !52
  %9 = icmp ne i64 %8, 0
  br i1 %9, label %10, label %15

10:                                               ; preds = %2
  %11 = load ptr, ptr %3, align 8, !tbaa !45
  %12 = getelementptr inbounds nuw %struct.strbuf, ptr %11, i32 0, i32 0
  %13 = load i64, ptr %12, align 8, !tbaa !52
  %14 = sub i64 %13, 1
  br label %16

15:                                               ; preds = %2
  br label %16

16:                                               ; preds = %15, %10
  %17 = phi i64 [ %14, %10 ], [ 0, %15 ]
  %18 = icmp ugt i64 %5, %17
  br i1 %18, label %19, label %20

19:                                               ; preds = %16
  call void (ptr, i32, ptr, ...) @BUG_fl(ptr noundef @.str.26, i32 noundef 167, ptr noundef @.str.27) #10
  unreachable

20:                                               ; preds = %16
  %21 = load i64, ptr %4, align 8, !tbaa !51
  %22 = load ptr, ptr %3, align 8, !tbaa !45
  %23 = getelementptr inbounds nuw %struct.strbuf, ptr %22, i32 0, i32 1
  store i64 %21, ptr %23, align 8, !tbaa !53
  %24 = load ptr, ptr %3, align 8, !tbaa !45
  %25 = getelementptr inbounds nuw %struct.strbuf, ptr %24, i32 0, i32 2
  %26 = load ptr, ptr %25, align 8, !tbaa !47
  %27 = icmp ne ptr %26, @strbuf_slopbuf
  br i1 %27, label %28, label %34

28:                                               ; preds = %20
  %29 = load ptr, ptr %3, align 8, !tbaa !45
  %30 = getelementptr inbounds nuw %struct.strbuf, ptr %29, i32 0, i32 2
  %31 = load ptr, ptr %30, align 8, !tbaa !47
  %32 = load i64, ptr %4, align 8, !tbaa !51
  %33 = getelementptr inbounds nuw i8, ptr %31, i64 %32
  store i8 0, ptr %33, align 1, !tbaa !42
  br label %35

34:                                               ; preds = %20
  br label %35

35:                                               ; preds = %34, %28
  ret void
}

; Function Attrs: inlinehint nounwind uwtable
define internal ptr @strbuf_split(ptr noundef %0, i32 noundef %1) #5 {
  %3 = alloca ptr, align 8
  %4 = alloca i32, align 4
  store ptr %0, ptr %3, align 8, !tbaa !45
  store i32 %1, ptr %4, align 4, !tbaa !16
  %5 = load ptr, ptr %3, align 8, !tbaa !45
  %6 = load i32, ptr %4, align 4, !tbaa !16
  %7 = call ptr @strbuf_split_max(ptr noundef %5, i32 noundef %6, i32 noundef 0)
  ret ptr %7
}

; Function Attrs: inlinehint nounwind uwtable
define internal void @strbuf_addstr(ptr noundef %0, ptr noundef %1) #5 {
  %3 = alloca ptr, align 8
  %4 = alloca ptr, align 8
  store ptr %0, ptr %3, align 8, !tbaa !45
  store ptr %1, ptr %4, align 8, !tbaa !9
  %5 = load ptr, ptr %3, align 8, !tbaa !45
  %6 = load ptr, ptr %4, align 8, !tbaa !9
  %7 = load ptr, ptr %4, align 8, !tbaa !9
  %8 = call i64 @strlen(ptr noundef %7) #9
  call void @strbuf_add(ptr noundef %5, ptr noundef %6, i64 noundef %8)
  ret void
}

; Function Attrs: nounwind uwtable
define dso_local ptr @get_git_namespace() #0 {
  %1 = alloca ptr, align 8
  %2 = alloca %struct.strbuf, align 8
  %3 = alloca ptr, align 8
  %4 = alloca ptr, align 8
  %5 = alloca ptr, align 8
  %6 = alloca i32, align 4
  call void @llvm.lifetime.start.p0(i64 24, ptr %2) #8
  call void @llvm.memcpy.p0.p0.i64(ptr align 8 %2, ptr align 8 @__const.get_git_namespace.buf, i64 24, i1 false)
  call void @llvm.lifetime.start.p0(i64 8, ptr %3) #8
  call void @llvm.lifetime.start.p0(i64 8, ptr %4) #8
  call void @llvm.lifetime.start.p0(i64 8, ptr %5) #8
  %7 = load ptr, ptr @get_git_namespace.namespace, align 8, !tbaa !9
  %8 = icmp ne ptr %7, null
  br i1 %8, label %9, label %11

9:                                                ; preds = %0
  %10 = load ptr, ptr @get_git_namespace.namespace, align 8, !tbaa !9
  store ptr %10, ptr %1, align 8
  store i32 1, ptr %6, align 4
  br label %57

11:                                               ; preds = %0
  %12 = call ptr @getenv(ptr noundef @.str.16) #8
  store ptr %12, ptr %5, align 8, !tbaa !9
  %13 = load ptr, ptr %5, align 8, !tbaa !9
  %14 = icmp ne ptr %13, null
  br i1 %14, label %15, label %19

15:                                               ; preds = %11
  %16 = load ptr, ptr %5, align 8, !tbaa !9
  %17 = load i8, ptr %16, align 1, !tbaa !42
  %18 = icmp ne i8 %17, 0
  br i1 %18, label %21, label %19

19:                                               ; preds = %15, %11
  store ptr @.str.17, ptr @get_git_namespace.namespace, align 8, !tbaa !9
  %20 = load ptr, ptr @get_git_namespace.namespace, align 8, !tbaa !9
  store ptr %20, ptr %1, align 8
  store i32 1, ptr %6, align 4
  br label %57

21:                                               ; preds = %15
  %22 = load ptr, ptr %5, align 8, !tbaa !9
  call void @strbuf_addstr(ptr noundef %2, ptr noundef %22)
  %23 = call ptr @strbuf_split(ptr noundef %2, i32 noundef 47)
  store ptr %23, ptr %3, align 8, !tbaa !43
  call void @strbuf_setlen(ptr noundef %2, i64 noundef 0)
  %24 = load ptr, ptr %3, align 8, !tbaa !43
  store ptr %24, ptr %4, align 8, !tbaa !43
  br label %25

25:                                               ; preds = %42, %21
  %26 = load ptr, ptr %4, align 8, !tbaa !43
  %27 = load ptr, ptr %26, align 8, !tbaa !45
  %28 = icmp ne ptr %27, null
  br i1 %28, label %29, label %45

29:                                               ; preds = %25
  %30 = load ptr, ptr %4, align 8, !tbaa !43
  %31 = load ptr, ptr %30, align 8, !tbaa !45
  %32 = getelementptr inbounds nuw %struct.strbuf, ptr %31, i32 0, i32 2
  %33 = load ptr, ptr %32, align 8, !tbaa !47
  %34 = call i32 @strcmp(ptr noundef %33, ptr noundef @.str.18) #9
  %35 = icmp ne i32 %34, 0
  br i1 %35, label %36, label %41

36:                                               ; preds = %29
  %37 = load ptr, ptr %4, align 8, !tbaa !43
  %38 = load ptr, ptr %37, align 8, !tbaa !45
  %39 = getelementptr inbounds nuw %struct.strbuf, ptr %38, i32 0, i32 2
  %40 = load ptr, ptr %39, align 8, !tbaa !47
  call void (ptr, ptr, ...) @strbuf_addf(ptr noundef %2, ptr noundef @.str.19, ptr noundef %40)
  br label %41

41:                                               ; preds = %36, %29
  br label %42

42:                                               ; preds = %41
  %43 = load ptr, ptr %4, align 8, !tbaa !43
  %44 = getelementptr inbounds nuw ptr, ptr %43, i32 1
  store ptr %44, ptr %4, align 8, !tbaa !43
  br label %25, !llvm.loop !49

45:                                               ; preds = %25
  %46 = load ptr, ptr %3, align 8, !tbaa !43
  call void @strbuf_list_free(ptr noundef %46)
  %47 = getelementptr inbounds nuw %struct.strbuf, ptr %2, i32 0, i32 2
  %48 = load ptr, ptr %47, align 8, !tbaa !47
  %49 = call i32 @check_refname_format(ptr noundef %48, i32 noundef 0)
  %50 = icmp ne i32 %49, 0
  br i1 %50, label %51, label %54

51:                                               ; preds = %45
  %52 = call ptr @_(ptr noundef @.str.20)
  %53 = load ptr, ptr %5, align 8, !tbaa !9
  call void (ptr, ...) @die(ptr noundef %52, ptr noundef %53) #10
  unreachable

54:                                               ; preds = %45
  call void @strbuf_addch(ptr noundef %2, i32 noundef 47)
  %55 = call ptr @strbuf_detach(ptr noundef %2, ptr noundef null)
  store ptr %55, ptr @get_git_namespace.namespace, align 8, !tbaa !9
  %56 = load ptr, ptr @get_git_namespace.namespace, align 8, !tbaa !9
  store ptr %56, ptr %1, align 8
  store i32 1, ptr %6, align 4
  br label %57

57:                                               ; preds = %54, %19, %9
  call void @llvm.lifetime.end.p0(i64 8, ptr %5) #8
  call void @llvm.lifetime.end.p0(i64 8, ptr %4) #8
  call void @llvm.lifetime.end.p0(i64 8, ptr %3) #8
  call void @llvm.lifetime.end.p0(i64 24, ptr %2) #8
  %58 = load ptr, ptr %1, align 8
  ret ptr %58
}