; Function Attrs: nounwind uwtable
define dso_local ptr @get_git_namespace() local_unnamed_addr #0 {
  %1 = alloca %struct.strbuf, align 8
  call void @llvm.lifetime.start.p0(i64 24, ptr nonnull %1) #14
  call void @llvm.memcpy.p0.p0.i64(ptr noundef nonnull align 8 dereferenceable(24) %1, ptr noundef nonnull align 8 dereferenceable(24) @__const.get_git_namespace.buf, i64 24, i1 false)
  %2 = load ptr, ptr @get_git_namespace.namespace, align 8, !tbaa !12
  %.not = icmp eq ptr %2, null
  br i1 %.not, label %3, label %39

3:                                                ; preds = %0
  %4 = tail call ptr @getenv(ptr noundef nonnull @.str.16) #14
  %.not15 = icmp eq ptr %4, null
  br i1 %.not15, label %.sink.split, label %5

5:                                                ; preds = %3
  %6 = load i8, ptr %4, align 1, !tbaa !40
  %.not16 = icmp eq i8 %6, 0
  br i1 %.not16, label %.sink.split, label %7

7:                                                ; preds = %5
  %8 = tail call i64 @strlen(ptr noundef nonnull dereferenceable(1) %4) #15
  call void @strbuf_add(ptr noundef nonnull %1, ptr noundef nonnull %4, i64 noundef %8) #14
  %9 = getelementptr inbounds nuw i8, ptr %1, i64 8
  %.val = load i64, ptr %9, align 8, !tbaa !41
  %10 = getelementptr inbounds nuw i8, ptr %1, i64 16
  %.val20 = load ptr, ptr %10, align 8, !tbaa !43
  %11 = call ptr @strbuf_split_buf(ptr noundef %.val20, i64 noundef %.val, i32 noundef 47, i32 noundef 0) #14
  store i64 0, ptr %9, align 8, !tbaa !41
  %12 = load ptr, ptr %10, align 8, !tbaa !43
  %.not9.i = icmp eq ptr %12, @strbuf_slopbuf
  br i1 %.not9.i, label %strbuf_setlen.exit, label %13

13:                                               ; preds = %7
  store i8 0, ptr %12, align 1, !tbaa !40
  br label %strbuf_setlen.exit

strbuf_setlen.exit:                               ; preds = %7, %13
  %14 = load ptr, ptr %11, align 8, !tbaa !44
  %.not1721 = icmp eq ptr %14, null
  br i1 %.not1721, label %._crit_edge, label %sub_0

sub_0:                                            ; preds = %strbuf_setlen.exit, %22
  %15 = phi ptr [ %24, %22 ], [ %14, %strbuf_setlen.exit ]
  %.01122 = phi ptr [ %23, %22 ], [ %11, %strbuf_setlen.exit ]
  %16 = getelementptr inbounds nuw i8, ptr %15, i64 16
  %17 = load ptr, ptr %16, align 8, !tbaa !43
  %18 = load i8, ptr %17, align 1
  %.not23 = icmp eq i8 %18, 47
  br i1 %.not23, label %.tail, label %.tail.thread

.tail:                                            ; preds = %sub_0
  %19 = getelementptr inbounds nuw i8, ptr %17, i64 1
  %20 = load i8, ptr %19, align 1
  %21 = icmp eq i8 %20, 0
  br i1 %21, label %22, label %.tail.thread

.tail.thread:                                     ; preds = %sub_0, %.tail
  call void (ptr, ptr, ...) @strbuf_addf(ptr noundef nonnull %1, ptr noundef nonnull @.str.19, ptr noundef nonnull %17) #14
  br label %22

22:                                               ; preds = %.tail, %.tail.thread
  %23 = getelementptr inbounds nuw i8, ptr %.01122, i64 8
  %24 = load ptr, ptr %23, align 8, !tbaa !44
  %.not17 = icmp eq ptr %24, null
  br i1 %.not17, label %._crit_edge, label %sub_0, !llvm.loop !46

._crit_edge:                                      ; preds = %22, %strbuf_setlen.exit
  call void @strbuf_list_free(ptr noundef nonnull %11) #14
  %25 = load ptr, ptr %10, align 8, !tbaa !43
  %26 = call i32 @check_refname_format(ptr noundef %25, i32 noundef 0) #14
  %.not18 = icmp eq i32 %26, 0
  br i1 %.not18, label %29, label %27

27:                                               ; preds = %._crit_edge
  %28 = call fastcc ptr @_()
  call void (ptr, ...) @die(ptr noundef %28, ptr noundef nonnull %4) #16
  unreachable

29:                                               ; preds = %._crit_edge
  %30 = load i64, ptr %1, align 8, !tbaa !48
  %.not.i.i = icmp eq i64 %30, 0
  br i1 %.not.i.i, label %strbuf_avail.exit.thread.i, label %strbuf_avail.exit.i

strbuf_avail.exit.i:                              ; preds = %29
  %31 = load i64, ptr %9, align 8, !tbaa !41
  %.neg.i = add i64 %31, 1
  %.not.i = icmp eq i64 %30, %.neg.i
  br i1 %.not.i, label %strbuf_avail.exit.thread.i, label %strbuf_addch.exit

strbuf_avail.exit.thread.i:                       ; preds = %strbuf_avail.exit.i, %29
  call void @strbuf_grow(ptr noundef nonnull %1, i64 noundef 1) #14
  %.pre.i = load i64, ptr %9, align 8, !tbaa !41
  %.pre7.i = add i64 %.pre.i, 1
  br label %strbuf_addch.exit

strbuf_addch.exit:                                ; preds = %strbuf_avail.exit.i, %strbuf_avail.exit.thread.i
  %.pre-phi.i = phi i64 [ %.pre7.i, %strbuf_avail.exit.thread.i ], [ %.neg.i, %strbuf_avail.exit.i ]
  %32 = phi i64 [ %.pre.i, %strbuf_avail.exit.thread.i ], [ %31, %strbuf_avail.exit.i ]
  %33 = load ptr, ptr %10, align 8, !tbaa !43
  store i64 %.pre-phi.i, ptr %9, align 8, !tbaa !41
  %34 = getelementptr inbounds nuw i8, ptr %33, i64 %32
  store i8 47, ptr %34, align 1, !tbaa !40
  %35 = load ptr, ptr %10, align 8, !tbaa !43
  %36 = load i64, ptr %9, align 8, !tbaa !41
  %37 = getelementptr inbounds nuw i8, ptr %35, i64 %36
  store i8 0, ptr %37, align 1, !tbaa !40
  %38 = call ptr @strbuf_detach(ptr noundef nonnull %1, ptr noundef null) #14
  br label %.sink.split

.sink.split:                                      ; preds = %3, %5, %strbuf_addch.exit
  %.sink = phi ptr [ %38, %strbuf_addch.exit ], [ @.str.17, %5 ], [ @.str.17, %3 ]
  store ptr %.sink, ptr @get_git_namespace.namespace, align 8, !tbaa !12
  br label %39

39:                                               ; preds = %.sink.split, %0
  %.0 = phi ptr [ %2, %0 ], [ %.sink, %.sink.split ]
  call void @llvm.lifetime.end.p0(i64 24, ptr nonnull %1) #14
  ret ptr %.0
}